target datalayout = "e-m:e-p270:32:32-p271:32:32-p272:64:64-i64:64-i128:128-f80:128-n8:16:32:64-S128"
target triple = "x86_64-unknown-linux-gnu"

%"class.std::vector.0" = type { %"struct.std::_Vector_base.1" }
%"struct.std::_Vector_base.1" = type { %"struct.std::_Vector_base<unsigned long, std::allocator<unsigned long>>::_Vector_impl" }
%"struct.std::_Vector_base<unsigned long, std::allocator<unsigned long>>::_Vector_impl" = type { %"struct.std::_Vector_base<unsigned long, std::allocator<unsigned long>>::_Vector_impl_data" }
%"struct.std::_Vector_base<unsigned long, std::allocator<unsigned long>>::_Vector_impl_data" = type { ptr, ptr, ptr }
%"class.std::vector" = type { %"struct.std::_Vector_base" }
%"struct.std::_Vector_base" = type { %"struct.std::_Vector_base<double, std::allocator<double>>::_Vector_impl" }
%"struct.std::_Vector_base<double, std::allocator<double>>::_Vector_impl" = type { %"struct.std::_Vector_base<double, std::allocator<double>>::_Vector_impl_data" }
%"struct.std::_Vector_base<double, std::allocator<double>>::_Vector_impl_data" = type { ptr, ptr, ptr }
%"class.QuantLib::SobolBrownianGeneratorBase" = type { %"class.QuantLib::BrownianGenerator", i64, i64, i32, %"class.QuantLib::BrownianBridge", i64, %"class.std::vector.5", %"class.std::vector.10" }
%"class.QuantLib::BrownianGenerator" = type { ptr }
%"class.QuantLib::BrownianBridge" = type { i64, %"class.std::vector", %"class.std::vector", %"class.std::vector.0", %"class.std::vector.0", %"class.std::vector.0", %"class.std::vector", %"class.std::vector", %"class.std::vector" }
%"class.std::vector.5" = type { %"struct.std::_Vector_base.6" }
%"struct.std::_Vector_base.6" = type { %"struct.std::_Vector_base<std::vector<unsigned long>, std::allocator<std::vector<unsigned long>>>::_Vector_impl" }
%"struct.std::_Vector_base<std::vector<unsigned long>, std::allocator<std::vector<unsigned long>>>::_Vector_impl" = type { %"struct.std::_Vector_base<std::vector<unsigned long>, std::allocator<std::vector<unsigned long>>>::_Vector_impl_data" }
%"struct.std::_Vector_base<std::vector<unsigned long>, std::allocator<std::vector<unsigned long>>>::_Vector_impl_data" = type { ptr, ptr, ptr }
%"class.std::vector.10" = type { %"struct.std::_Vector_base.11" }
%"struct.std::_Vector_base.11" = type { %"struct.std::_Vector_base<std::vector<double>, std::allocator<std::vector<double>>>::_Vector_impl" }
%"struct.std::_Vector_base<std::vector<double>, std::allocator<std::vector<double>>>::_Vector_impl" = type { %"struct.std::_Vector_base<std::vector<double>, std::allocator<std::vector<double>>>::_Vector_impl_data" }
%"struct.std::_Vector_base<std::vector<double>, std::allocator<std::vector<double>>>::_Vector_impl_data" = type { ptr, ptr, ptr }
%"class.boost::iterators::permutation_iterator" = type { %"class.boost::iterators::iterator_adaptor", %"class.__gnu_cxx::__normal_iterator.20" }
%"class.boost::iterators::iterator_adaptor" = type { %"class.__gnu_cxx::__normal_iterator" }
%"class.__gnu_cxx::__normal_iterator" = type { ptr }
%"class.__gnu_cxx::__normal_iterator.20" = type { ptr }
%"class.__gnu_cxx::__normal_iterator.21" = type { ptr }
%"struct.QuantLib::Sample" = type { %"class.std::vector", double }

; Function Attrs: mustprogress nounwind uwtable
define linkonce_odr void @_ZN5boost9iterators16iterator_adaptorINS0_20permutation_iteratorIN9__gnu_cxx17__normal_iteratorIPKdSt6vectorIdSaIdEEEENS4_IPmS7_ImSaImEEEEEESE_dNS_11use_defaultERS5_SG_EC2ERKSE_(ptr noundef nonnull align 8 dereferenceable(8) %this, ptr noundef nonnull align 8 dereferenceable(8) %iter) unnamed_addr #4 comdat align 2 {
entry:
  %this.addr = alloca ptr, align 8
  %iter.addr = alloca ptr, align 8
  store ptr %this, ptr %this.addr, align 8, !tbaa !3
  store ptr %iter, ptr %iter.addr, align 8, !tbaa !3
  %this1 = load ptr, ptr %this.addr, align 8
  %m_iterator = getelementptr inbounds nuw %"class.boost::iterators::iterator_adaptor", ptr %this1, i32 0, i32 0
  %0 = load ptr, ptr %iter.addr, align 8, !tbaa !3
  call void @llvm.memcpy.p0.p0.i64(ptr align 8 %m_iterator, ptr align 8 %0, i64 8, i1 false), !tbaa.struct !58
  ret void
}

; Function Attrs: mustprogress nounwind uwtable
define linkonce_odr void @_ZN9__gnu_cxx17__normal_iteratorIPdSt6vectorIdSaIdEEEC2ERKS1_(ptr noundef nonnull align 8 dereferenceable(8) %this, ptr noundef nonnull align 8 dereferenceable(8) %__i) unnamed_addr #4 comdat align 2 {
entry:
  %this.addr = alloca ptr, align 8
  %__i.addr = alloca ptr, align 8
  store ptr %this, ptr %this.addr, align 8, !tbaa !3
  store ptr %__i, ptr %__i.addr, align 8, !tbaa !3
  %this1 = load ptr, ptr %this.addr, align 8
  %_M_current = getelementptr inbounds nuw %"class.__gnu_cxx::__normal_iterator.21", ptr %this1, i32 0, i32 0
  %0 = load ptr, ptr %__i.addr, align 8, !tbaa !3
  %1 = load ptr, ptr %0, align 8, !tbaa !3
  store ptr %1, ptr %_M_current, align 8, !tbaa !64
  ret void
}

; Function Attrs: mustprogress uwtable
define linkonce_odr void @_ZN5boost9iterators20permutation_iteratorIN9__gnu_cxx17__normal_iteratorIPKdSt6vectorIdSaIdEEEENS3_IPmS6_ImSaImEEEEEC2ES9_SD_(ptr noundef nonnull align 8 dereferenceable(16) %this, ptr %x.coerce, ptr %y.coerce) unnamed_addr #0 comdat align 2 {
entry:
  %x = alloca %"class.__gnu_cxx::__normal_iterator.20", align 8
  %y = alloca %"class.__gnu_cxx::__normal_iterator", align 8
  %this.addr = alloca ptr, align 8
  %coerce.dive = getelementptr inbounds nuw %"class.__gnu_cxx::__normal_iterator.20", ptr %x, i32 0, i32 0
  store ptr %x.coerce, ptr %coerce.dive, align 8
  %coerce.dive1 = getelementptr inbounds nuw %"class.__gnu_cxx::__normal_iterator", ptr %y, i32 0, i32 0
  store ptr %y.coerce, ptr %coerce.dive1, align 8
  store ptr %this, ptr %this.addr, align 8, !tbaa !3
  %this2 = load ptr, ptr %this.addr, align 8
  call void @_ZN5boost9iterators16iterator_adaptorINS0_20permutation_iteratorIN9__gnu_cxx17__normal_iteratorIPKdSt6vectorIdSaIdEEEENS4_IPmS7_ImSaImEEEEEESE_dNS_11use_defaultERS5_SG_EC2ERKSE_(ptr noundef nonnull align 8 dereferenceable(8) %this2, ptr noundef nonnull align 8 dereferenceable(8) %y)
  %m_elt_iter = getelementptr inbounds nuw %"class.boost::iterators::permutation_iterator", ptr %this2, i32 0, i32 1
  call void @llvm.memcpy.p0.p0.i64(ptr align 8 %m_elt_iter, ptr align 8 %x, i64 8, i1 false), !tbaa.struct !58
  ret void
}

; Function Attrs: mustprogress nounwind uwtable
define linkonce_odr void @_ZN9__gnu_cxx17__normal_iteratorIPmSt6vectorImSaImEEEC2ERKS1_(ptr noundef nonnull align 8 dereferenceable(8) %this, ptr noundef nonnull align 8 dereferenceable(8) %__i) unnamed_addr #4 comdat align 2 {
entry:
  %this.addr = alloca ptr, align 8
  %__i.addr = alloca ptr, align 8
  store ptr %this, ptr %this.addr, align 8, !tbaa !3
  store ptr %__i, ptr %__i.addr, align 8, !tbaa !3
  %this1 = load ptr, ptr %this.addr, align 8
  %_M_current = getelementptr inbounds nuw %"class.__gnu_cxx::__normal_iterator", ptr %this1, i32 0, i32 0
  %0 = load ptr, ptr %__i.addr, align 8, !tbaa !3
  %1 = load ptr, ptr %0, align 8, !tbaa !3
  store ptr %1, ptr %_M_current, align 8, !tbaa !171
  ret void
}

; Function Attrs: mustprogress nounwind uwtable
define linkonce_odr void @_ZN9__gnu_cxx17__normal_iteratorIPKdSt6vectorIdSaIdEEEC2ERKS2_(ptr noundef nonnull align 8 dereferenceable(8) %this, ptr noundef nonnull align 8 dereferenceable(8) %__i) unnamed_addr #4 comdat align 2 {
entry:
  %this.addr = alloca ptr, align 8
  %__i.addr = alloca ptr, align 8
  store ptr %this, ptr %this.addr, align 8, !tbaa !3
  store ptr %__i, ptr %__i.addr, align 8, !tbaa !3
  %this1 = load ptr, ptr %this.addr, align 8
  %_M_current = getelementptr inbounds nuw %"class.__gnu_cxx::__normal_iterator.20", ptr %this1, i32 0, i32 0
  %0 = load ptr, ptr %__i.addr, align 8, !tbaa !3
  %1 = load ptr, ptr %0, align 8, !tbaa !3
  store ptr %1, ptr %_M_current, align 8, !tbaa !158
  ret void
}

; Function Attrs: mustprogress nounwind uwtable
define linkonce_odr ptr @_ZNSt6vectorIdSaIdEE5beginEv(ptr noundef nonnull align 8 dereferenceable(24) %this) #4 comdat align 2 {
entry:
  %retval = alloca %"class.__gnu_cxx::__normal_iterator.21", align 8
  %this.addr = alloca ptr, align 8
  store ptr %this, ptr %this.addr, align 8, !tbaa !3
  %this1 = load ptr, ptr %this.addr, align 8
  %_M_impl = getelementptr inbounds nuw %"struct.std::_Vector_base", ptr %this1, i32 0, i32 0
  %_M_start = getelementptr inbounds nuw %"struct.std::_Vector_base<double, std::allocator<double>>::_Vector_impl_data", ptr %_M_impl, i32 0, i32 0
  call void @_ZN9__gnu_cxx17__normal_iteratorIPdSt6vectorIdSaIdEEEC2ERKS1_(ptr noundef nonnull align 8 dereferenceable(8) %retval, ptr noundef nonnull align 8 dereferenceable(8) %_M_start) #16
  %coerce.dive = getelementptr inbounds nuw %"class.__gnu_cxx::__normal_iterator.21", ptr %retval, i32 0, i32 0
  %0 = load ptr, ptr %coerce.dive, align 8
  ret ptr %0
}

; Function Attrs: mustprogress nounwind uwtable
define linkonce_odr noundef nonnull align 8 dereferenceable(24) ptr @_ZNSt6vectorIS_IdSaIdEESaIS1_EEixEm(ptr noundef nonnull align 8 dereferenceable(24) %this, i64 noundef %__n) #4 comdat align 2 {
entry:
  %this.addr = alloca ptr, align 8
  %__n.addr = alloca i64, align 8
  store ptr %this, ptr %this.addr, align 8, !tbaa !3
  store i64 %__n, ptr %__n.addr, align 8, !tbaa !7
  %this1 = load ptr, ptr %this.addr, align 8
  %_M_impl = getelementptr inbounds nuw %"struct.std::_Vector_base.11", ptr %this1, i32 0, i32 0
  %_M_start = getelementptr inbounds nuw %"struct.std::_Vector_base<std::vector<double>, std::allocator<std::vector<double>>>::_Vector_impl_data", ptr %_M_impl, i32 0, i32 0
  %0 = load ptr, ptr %_M_start, align 8, !tbaa !46
  %1 = load i64, ptr %__n.addr, align 8, !tbaa !7
  %add.ptr = getelementptr inbounds nuw %"class.std::vector", ptr %0, i64 %1
  ret ptr %add.ptr
}

; Function Attrs: mustprogress nounwind uwtable
define linkonce_odr ptr @_ZNSt6vectorImSaImEE3endEv(ptr noundef nonnull align 8 dereferenceable(24) %this) #4 comdat align 2 {
entry:
  %retval = alloca %"class.__gnu_cxx::__normal_iterator", align 8
  %this.addr = alloca ptr, align 8
  store ptr %this, ptr %this.addr, align 8, !tbaa !3
  %this1 = load ptr, ptr %this.addr, align 8
  %_M_impl = getelementptr inbounds nuw %"struct.std::_Vector_base.1", ptr %this1, i32 0, i32 0
  %_M_finish = getelementptr inbounds nuw %"struct.std::_Vector_base<unsigned long, std::allocator<unsigned long>>::_Vector_impl_data", ptr %_M_impl, i32 0, i32 1
  call void @_ZN9__gnu_cxx17__normal_iteratorIPmSt6vectorImSaImEEEC2ERKS1_(ptr noundef nonnull align 8 dereferenceable(8) %retval, ptr noundef nonnull align 8 dereferenceable(8) %_M_finish) #16
  %coerce.dive = getelementptr inbounds nuw %"class.__gnu_cxx::__normal_iterator", ptr %retval, i32 0, i32 0
  %0 = load ptr, ptr %coerce.dive, align 8
  ret ptr %0
}

; Function Attrs: inlinehint mustprogress uwtable
define linkonce_odr { ptr, ptr } @_ZN5boost9iterators25make_permutation_iteratorIN9__gnu_cxx17__normal_iteratorIPKdSt6vectorIdSaIdEEEENS3_IPmS6_ImSaImEEEEEENS0_20permutation_iteratorIT_T0_EESF_SG_(ptr %e.coerce, ptr %i.coerce) #5 comdat {
entry:
  %retval = alloca %"class.boost::iterators::permutation_iterator", align 8
  %e = alloca %"class.__gnu_cxx::__normal_iterator.20", align 8
  %i = alloca %"class.__gnu_cxx::__normal_iterator", align 8
  %agg.tmp = alloca %"class.__gnu_cxx::__normal_iterator.20", align 8
  %agg.tmp2 = alloca %"class.__gnu_cxx::__normal_iterator", align 8
  %coerce.dive = getelementptr inbounds nuw %"class.__gnu_cxx::__normal_iterator.20", ptr %e, i32 0, i32 0
  store ptr %e.coerce, ptr %coerce.dive, align 8
  %coerce.dive1 = getelementptr inbounds nuw %"class.__gnu_cxx::__normal_iterator", ptr %i, i32 0, i32 0
  store ptr %i.coerce, ptr %coerce.dive1, align 8
  call void @llvm.memcpy.p0.p0.i64(ptr align 8 %agg.tmp, ptr align 8 %e, i64 8, i1 false), !tbaa.struct !58
  call void @llvm.memcpy.p0.p0.i64(ptr align 8 %agg.tmp2, ptr align 8 %i, i64 8, i1 false), !tbaa.struct !58
  %coerce.dive3 = getelementptr inbounds nuw %"class.__gnu_cxx::__normal_iterator.20", ptr %agg.tmp, i32 0, i32 0
  %0 = load ptr, ptr %coerce.dive3, align 8
  %coerce.dive4 = getelementptr inbounds nuw %"class.__gnu_cxx::__normal_iterator", ptr %agg.tmp2, i32 0, i32 0
  %1 = load ptr, ptr %coerce.dive4, align 8
  call void @_ZN5boost9iterators20permutation_iteratorIN9__gnu_cxx17__normal_iteratorIPKdSt6vectorIdSaIdEEEENS3_IPmS6_ImSaImEEEEEC2ES9_SD_(ptr noundef nonnull align 8 dereferenceable(16) %retval, ptr %0, ptr %1)
  %2 = load { ptr, ptr }, ptr %retval, align 8
  ret { ptr, ptr } %2
}

; Function Attrs: mustprogress nounwind uwtable
define linkonce_odr ptr @_ZNSt6vectorImSaImEE5beginEv(ptr noundef nonnull align 8 dereferenceable(24) %this) #4 comdat align 2 {
entry:
  %retval = alloca %"class.__gnu_cxx::__normal_iterator", align 8
  %this.addr = alloca ptr, align 8
  store ptr %this, ptr %this.addr, align 8, !tbaa !3
  %this1 = load ptr, ptr %this.addr, align 8
  %_M_impl = getelementptr inbounds nuw %"struct.std::_Vector_base.1", ptr %this1, i32 0, i32 0
  %_M_start = getelementptr inbounds nuw %"struct.std::_Vector_base<unsigned long, std::allocator<unsigned long>>::_Vector_impl_data", ptr %_M_impl, i32 0, i32 0
  call void @_ZN9__gnu_cxx17__normal_iteratorIPmSt6vectorImSaImEEEC2ERKS1_(ptr noundef nonnull align 8 dereferenceable(8) %retval, ptr noundef nonnull align 8 dereferenceable(8) %_M_start) #16
  %coerce.dive = getelementptr inbounds nuw %"class.__gnu_cxx::__normal_iterator", ptr %retval, i32 0, i32 0
  %0 = load ptr, ptr %coerce.dive, align 8
  ret ptr %0
}

; Function Attrs: mustprogress nounwind uwtable
define linkonce_odr noundef nonnull align 8 dereferenceable(24) ptr @_ZNSt6vectorIS_ImSaImEESaIS1_EEixEm(ptr noundef nonnull align 8 dereferenceable(24) %this, i64 noundef %__n) #4 comdat align 2 {
entry:
  %this.addr = alloca ptr, align 8
  %__n.addr = alloca i64, align 8
  store ptr %this, ptr %this.addr, align 8, !tbaa !3
  store i64 %__n, ptr %__n.addr, align 8, !tbaa !7
  %this1 = load ptr, ptr %this.addr, align 8
  %_M_impl = getelementptr inbounds nuw %"struct.std::_Vector_base.6", ptr %this1, i32 0, i32 0
  %_M_start = getelementptr inbounds nuw %"struct.std::_Vector_base<std::vector<unsigned long>, std::allocator<std::vector<unsigned long>>>::_Vector_impl_data", ptr %_M_impl, i32 0, i32 0
  %0 = load ptr, ptr %_M_start, align 8, !tbaa !48
  %1 = load i64, ptr %__n.addr, align 8, !tbaa !7
  %add.ptr = getelementptr inbounds nuw %"class.std::vector.0", ptr %0, i64 %1
  ret ptr %add.ptr
}

; Function Attrs: mustprogress nounwind uwtable
define linkonce_odr ptr @_ZNKSt6vectorIdSaIdEE5beginEv(ptr noundef nonnull align 8 dereferenceable(24) %this) #4 comdat align 2 {
entry:
  %retval = alloca %"class.__gnu_cxx::__normal_iterator.20", align 8
  %this.addr = alloca ptr, align 8
  store ptr %this, ptr %this.addr, align 8, !tbaa !3
  %this1 = load ptr, ptr %this.addr, align 8
  %_M_impl = getelementptr inbounds nuw %"struct.std::_Vector_base", ptr %this1, i32 0, i32 0
  %_M_start = getelementptr inbounds nuw %"struct.std::_Vector_base<double, std::allocator<double>>::_Vector_impl_data", ptr %_M_impl, i32 0, i32 0
  call void @_ZN9__gnu_cxx17__normal_iteratorIPKdSt6vectorIdSaIdEEEC2ERKS2_(ptr noundef nonnull align 8 dereferenceable(8) %retval, ptr noundef nonnull align 8 dereferenceable(8) %_M_start) #16
  %coerce.dive = getelementptr inbounds nuw %"class.__gnu_cxx::__normal_iterator.20", ptr %retval, i32 0, i32 0
  %0 = load ptr, ptr %coerce.dive, align 8
  ret ptr %0
}

; Function Attrs: mustprogress uwtable
define noundef double @_ZN8QuantLib26SobolBrownianGeneratorBase8nextPathEv(ptr noundef nonnull align 8 dereferenceable(288) %this) unnamed_addr #0 align 2 {
entry:
  %this.addr = alloca ptr, align 8
  %sample = alloca ptr, align 8
  %i = alloca i64, align 8
  %agg.tmp = alloca %"class.boost::iterators::permutation_iterator", align 8
  %agg.tmp2 = alloca %"class.__gnu_cxx::__normal_iterator.20", align 8
  %agg.tmp4 = alloca %"class.__gnu_cxx::__normal_iterator", align 8
  %agg.tmp11 = alloca %"class.boost::iterators::permutation_iterator", align 8
  %agg.tmp12 = alloca %"class.__gnu_cxx::__normal_iterator.20", align 8
  %agg.tmp16 = alloca %"class.__gnu_cxx::__normal_iterator", align 8
  %agg.tmp24 = alloca %"class.__gnu_cxx::__normal_iterator.21", align 8
  store ptr %this, ptr %this.addr, align 8, !tbaa !3
  %this1 = load ptr, ptr %this.addr, align 8
  call void @llvm.lifetime.start.p0(i64 8, ptr %sample) #16
  %vtable = load ptr, ptr %this1, align 8, !tbaa !11
  %vfn = getelementptr inbounds ptr, ptr %vtable, i64 6
  %0 = load ptr, ptr %vfn, align 8
  %call = call noundef nonnull align 8 dereferenceable(32) ptr %0(ptr noundef nonnull align 8 dereferenceable(288) %this1)
  store ptr %call, ptr %sample, align 8, !tbaa !3
  call void @llvm.lifetime.start.p0(i64 8, ptr %i) #16
  store i64 0, ptr %i, align 8, !tbaa !7
  br label %for.cond

for.cond:                                         ; preds = %for.inc, %entry
  %1 = load i64, ptr %i, align 8, !tbaa !7
  %factors_ = getelementptr inbounds nuw %"class.QuantLib::SobolBrownianGeneratorBase", ptr %this1, i32 0, i32 1
  %2 = load i64, ptr %factors_, align 8, !tbaa !13
  %cmp = icmp ult i64 %1, %2
  br i1 %cmp, label %for.body, label %for.cond.cleanup

for.cond.cleanup:                                 ; preds = %for.cond
  call void @llvm.lifetime.end.p0(i64 8, ptr %i) #16
  br label %for.end

for.body:                                         ; preds = %for.cond
  %bridge_ = getelementptr inbounds nuw %"class.QuantLib::SobolBrownianGeneratorBase", ptr %this1, i32 0, i32 4
  %3 = load ptr, ptr %sample, align 8, !tbaa !3
  %value = getelementptr inbounds nuw %"struct.QuantLib::Sample", ptr %3, i32 0, i32 0
  %call3 = call ptr @_ZNKSt6vectorIdSaIdEE5beginEv(ptr noundef nonnull align 8 dereferenceable(24) %value) #16
  %coerce.dive = getelementptr inbounds nuw %"class.__gnu_cxx::__normal_iterator.20", ptr %agg.tmp2, i32 0, i32 0
  store ptr %call3, ptr %coerce.dive, align 8
  %orderedIndices_ = getelementptr inbounds nuw %"class.QuantLib::SobolBrownianGeneratorBase", ptr %this1, i32 0, i32 6
  %4 = load i64, ptr %i, align 8, !tbaa !7
  %call5 = call noundef nonnull align 8 dereferenceable(24) ptr @_ZNSt6vectorIS_ImSaImEESaIS1_EEixEm(ptr noundef nonnull align 8 dereferenceable(24) %orderedIndices_, i64 noundef %4) #16
  %call6 = call ptr @_ZNSt6vectorImSaImEE5beginEv(ptr noundef nonnull align 8 dereferenceable(24) %call5) #16
  %coerce.dive7 = getelementptr inbounds nuw %"class.__gnu_cxx::__normal_iterator", ptr %agg.tmp4, i32 0, i32 0
  store ptr %call6, ptr %coerce.dive7, align 8
  %coerce.dive8 = getelementptr inbounds nuw %"class.__gnu_cxx::__normal_iterator.20", ptr %agg.tmp2, i32 0, i32 0
  %5 = load ptr, ptr %coerce.dive8, align 8
  %coerce.dive9 = getelementptr inbounds nuw %"class.__gnu_cxx::__normal_iterator", ptr %agg.tmp4, i32 0, i32 0
  %6 = load ptr, ptr %coerce.dive9, align 8
  %call10 = call { ptr, ptr } @_ZN5boost9iterators25make_permutation_iteratorIN9__gnu_cxx17__normal_iteratorIPKdSt6vectorIdSaIdEEEENS3_IPmS6_ImSaImEEEEEENS0_20permutation_iteratorIT_T0_EESF_SG_(ptr %5, ptr %6)
  %7 = getelementptr inbounds nuw { ptr, ptr }, ptr %agg.tmp, i32 0, i32 0
  %8 = extractvalue { ptr, ptr } %call10, 0
  store ptr %8, ptr %7, align 8
  %9 = getelementptr inbounds nuw { ptr, ptr }, ptr %agg.tmp, i32 0, i32 1
  %10 = extractvalue { ptr, ptr } %call10, 1
  store ptr %10, ptr %9, align 8
  %11 = load ptr, ptr %sample, align 8, !tbaa !3
  %value13 = getelementptr inbounds nuw %"struct.QuantLib::Sample", ptr %11, i32 0, i32 0
  %call14 = call ptr @_ZNKSt6vectorIdSaIdEE5beginEv(ptr noundef nonnull align 8 dereferenceable(24) %value13) #16
  %coerce.dive15 = getelementptr inbounds nuw %"class.__gnu_cxx::__normal_iterator.20", ptr %agg.tmp12, i32 0, i32 0
  store ptr %call14, ptr %coerce.dive15, align 8
  %orderedIndices_17 = getelementptr inbounds nuw %"class.QuantLib::SobolBrownianGeneratorBase", ptr %this1, i32 0, i32 6
  %12 = load i64, ptr %i, align 8, !tbaa !7
  %call18 = call noundef nonnull align 8 dereferenceable(24) ptr @_ZNSt6vectorIS_ImSaImEESaIS1_EEixEm(ptr noundef nonnull align 8 dereferenceable(24) %orderedIndices_17, i64 noundef %12) #16
  %call19 = call ptr @_ZNSt6vectorImSaImEE3endEv(ptr noundef nonnull align 8 dereferenceable(24) %call18) #16
  %coerce.dive20 = getelementptr inbounds nuw %"class.__gnu_cxx::__normal_iterator", ptr %agg.tmp16, i32 0, i32 0
  store ptr %call19, ptr %coerce.dive20, align 8
  %coerce.dive21 = getelementptr inbounds nuw %"class.__gnu_cxx::__normal_iterator.20", ptr %agg.tmp12, i32 0, i32 0
  %13 = load ptr, ptr %coerce.dive21, align 8
  %coerce.dive22 = getelementptr inbounds nuw %"class.__gnu_cxx::__normal_iterator", ptr %agg.tmp16, i32 0, i32 0
  %14 = load ptr, ptr %coerce.dive22, align 8
  %call23 = call { ptr, ptr } @_ZN5boost9iterators25make_permutation_iteratorIN9__gnu_cxx17__normal_iteratorIPKdSt6vectorIdSaIdEEEENS3_IPmS6_ImSaImEEEEEENS0_20permutation_iteratorIT_T0_EESF_SG_(ptr %13, ptr %14)
  %15 = getelementptr inbounds nuw { ptr, ptr }, ptr %agg.tmp11, i32 0, i32 0
  %16 = extractvalue { ptr, ptr } %call23, 0
  store ptr %16, ptr %15, align 8
  %17 = getelementptr inbounds nuw { ptr, ptr }, ptr %agg.tmp11, i32 0, i32 1
  %18 = extractvalue { ptr, ptr } %call23, 1
  store ptr %18, ptr %17, align 8
  %bridgedVariates_ = getelementptr inbounds nuw %"class.QuantLib::SobolBrownianGeneratorBase", ptr %this1, i32 0, i32 7
  %19 = load i64, ptr %i, align 8, !tbaa !7
  %call25 = call noundef nonnull align 8 dereferenceable(24) ptr @_ZNSt6vectorIS_IdSaIdEESaIS1_EEixEm(ptr noundef nonnull align 8 dereferenceable(24) %bridgedVariates_, i64 noundef %19) #16
  %call26 = call ptr @_ZNSt6vectorIdSaIdEE5beginEv(ptr noundef nonnull align 8 dereferenceable(24) %call25) #16
  %coerce.dive27 = getelementptr inbounds nuw %"class.__gnu_cxx::__normal_iterator.21", ptr %agg.tmp24, i32 0, i32 0
  store ptr %call26, ptr %coerce.dive27, align 8
  %20 = getelementptr inbounds nuw { ptr, ptr }, ptr %agg.tmp, i32 0, i32 0
  %21 = load ptr, ptr %20, align 8
  %22 = getelementptr inbounds nuw { ptr, ptr }, ptr %agg.tmp, i32 0, i32 1
  %23 = load ptr, ptr %22, align 8
  %24 = getelementptr inbounds nuw { ptr, ptr }, ptr %agg.tmp11, i32 0, i32 0
  %25 = load ptr, ptr %24, align 8
  %26 = getelementptr inbounds nuw { ptr, ptr }, ptr %agg.tmp11, i32 0, i32 1
  %27 = load ptr, ptr %26, align 8
  %coerce.dive28 = getelementptr inbounds nuw %"class.__gnu_cxx::__normal_iterator.21", ptr %agg.tmp24, i32 0, i32 0
  %28 = load ptr, ptr %coerce.dive28, align 8
  call void @_ZNK8QuantLib14BrownianBridge9transformIN5boost9iterators20permutation_iteratorIN9__gnu_cxx17__normal_iteratorIPKdSt6vectorIdSaIdEEEENS6_IPmS9_ImSaImEEEEEENS6_IPdSB_EEEEvT_SK_T0_(ptr noundef nonnull align 8 dereferenceable(200) %bridge_, ptr %21, ptr %23, ptr %25, ptr %27, ptr %28)
  br label %for.inc

for.inc:                                          ; preds = %for.body
  %29 = load i64, ptr %i, align 8, !tbaa !7
  %inc = add i64 %29, 1
  store i64 %inc, ptr %i, align 8, !tbaa !7
  br label %for.cond, !llvm.loop !50

for.end:                                          ; preds = %for.cond.cleanup
  %lastStep_ = getelementptr inbounds nuw %"class.QuantLib::SobolBrownianGeneratorBase", ptr %this1, i32 0, i32 5
  store i64 0, ptr %lastStep_, align 8, !tbaa !35
  %30 = load ptr, ptr %sample, align 8, !tbaa !3
  %weight = getelementptr inbounds nuw %"struct.QuantLib::Sample", ptr %30, i32 0, i32 1
  %31 = load double, ptr %weight, align 8, !tbaa !51
  call void @llvm.lifetime.end.p0(i64 8, ptr %sample) #16
  ret double %31
}