; Function Attrs: mustprogress uwtable
define noundef double @_ZN8QuantLib26SobolBrownianGeneratorBase8nextPathEv(ptr noundef nonnull align 8 dereferenceable(288) %this) unnamed_addr #0 align 2 {
entry:
  %vtable = load ptr, ptr %this, align 8, !tbaa !3
  %vfn = getelementptr inbounds i8, ptr %vtable, i64 48
  %0 = load ptr, ptr %vfn, align 8
  %call = tail call noundef nonnull align 8 dereferenceable(32) ptr %0(ptr noundef nonnull align 8 dereferenceable(288) %this)
  %factors_ = getelementptr inbounds nuw i8, ptr %this, i64 8
  %1 = load i64, ptr %factors_, align 8, !tbaa !6
  %cmp11.not = icmp eq i64 %1, 0
  br i1 %cmp11.not, label %for.cond.cleanup, label %for.body.lr.ph

for.body.lr.ph:                                   ; preds = %entry
  %bridge_ = getelementptr inbounds nuw i8, ptr %this, i64 32
  %orderedIndices_ = getelementptr inbounds nuw i8, ptr %this, i64 240
  %bridgedVariates_ = getelementptr inbounds nuw i8, ptr %this, i64 264
  br label %for.body

for.cond.cleanup:                                 ; preds = %for.body, %entry
  %lastStep_ = getelementptr inbounds nuw i8, ptr %this, i64 232
  store i64 0, ptr %lastStep_, align 8, !tbaa !32
  %weight = getelementptr inbounds nuw i8, ptr %call, i64 24
  %2 = load double, ptr %weight, align 8, !tbaa !64
  ret double %2

for.body:                                         ; preds = %for.body.lr.ph, %for.body
  %i.012 = phi i64 [ 0, %for.body.lr.ph ], [ %inc, %for.body ]
  %3 = load ptr, ptr %call, align 8, !tbaa !66
  %4 = load ptr, ptr %orderedIndices_, align 8, !tbaa !37
  %add.ptr.i = getelementptr inbounds nuw %"class.std::vector.0", ptr %4, i64 %i.012
  %5 = load ptr, ptr %add.ptr.i, align 8, !tbaa !66
  %_M_finish.i = getelementptr inbounds nuw i8, ptr %add.ptr.i, i64 8
  %6 = load ptr, ptr %_M_finish.i, align 8, !tbaa !66
  %7 = load ptr, ptr %bridgedVariates_, align 8, !tbaa !45
  %add.ptr.i10 = getelementptr inbounds nuw %"class.std::vector", ptr %7, i64 %i.012
  %8 = load ptr, ptr %add.ptr.i10, align 8, !tbaa !66
  tail call void @_ZNK8QuantLib14BrownianBridge9transformIN5boost9iterators20permutation_iteratorIN9__gnu_cxx17__normal_iteratorIPKdSt6vectorIdSaIdEEEENS6_IPmS9_ImSaImEEEEEENS6_IPdSB_EEEEvT_SK_T0_(ptr noundef nonnull align 8 dereferenceable(200) %bridge_, ptr %5, ptr %3, ptr %6, ptr %3, ptr %8)
  %inc = add nuw i64 %i.012, 1
  %9 = load i64, ptr %factors_, align 8, !tbaa !6
  %cmp = icmp ult i64 %inc, %9
  br i1 %cmp, label %for.body, label %for.cond.cleanup, !llvm.loop !67
}